target datalayout = "e-m:e-p270:32:32-p271:32:32-p272:64:64-i64:64-i128:128-f80:128-n8:16:32:64-S128"
target triple = "x86_64-pc-linux-gnu"

%struct.b2ShapeId = type { i32, i16, i16 }
%struct.b2Vec2 = type { float, float }
%struct.b2Transform = type { %struct.b2Vec2, %struct.b2Rot }
%struct.b2Rot = type { float, float }
%struct.b2BodyId = type { i32, i16, i16 }
%struct.b2ShapeDef = type { ptr, float, float, float, float, i32, float, %struct.b2Filter, i32, i8, i8, i8, i8, i8, i8, i32 }
%struct.b2Filter = type { i64, i64, i32 }
%struct.b2Shape = type { i32, i32, i32, i32, i32, i32, float, float, float, float, float, i32, %struct.b2AABB, %struct.b2AABB, %struct.b2Vec2, i32, %struct.b2Filter, ptr, i32, %union.anon.0, i16, i8, i8, i8, i8 }
%struct.b2AABB = type { %struct.b2Vec2, %struct.b2Vec2 }
%union.anon.0 = type { %struct.b2Polygon }
%struct.b2Polygon = type { [8 x %struct.b2Vec2], [8 x %struct.b2Vec2], %struct.b2Vec2, float, i32 }

; Function Attrs: nounwind uwtable
define internal i64 @b2CreateShape(i64 %0, ptr noundef %1, ptr noundef %2, i32 noundef %3) #3 {
  %5 = alloca %struct.b2ShapeId, align 4
  %6 = alloca %struct.b2BodyId, align 4
  %7 = alloca ptr, align 8
  %8 = alloca ptr, align 8
  %9 = alloca i32, align 4
  %10 = alloca ptr, align 8
  %11 = alloca i32, align 4
  %12 = alloca ptr, align 8
  %13 = alloca %struct.b2Transform, align 4
  %14 = alloca ptr, align 8
  store i64 %0, ptr %6, align 4
  store ptr %1, ptr %7, align 8, !tbaa !19
  store ptr %2, ptr %8, align 8, !tbaa !12
  store i32 %3, ptr %9, align 4, !tbaa !3
  call void @llvm.lifetime.start.p0(i64 8, ptr %10) #9
  %15 = getelementptr inbounds nuw %struct.b2BodyId, ptr %6, i32 0, i32 1
  %16 = load i16, ptr %15, align 4, !tbaa !23
  %17 = zext i16 %16 to i32
  %18 = call ptr @b2GetWorldLocked(i32 noundef %17)
  store ptr %18, ptr %10, align 8, !tbaa !26
  %19 = load ptr, ptr %10, align 8, !tbaa !26
  %20 = icmp eq ptr %19, null
  br i1 %20, label %21, label %25

21:                                               ; preds = %4
  %22 = getelementptr inbounds nuw %struct.b2ShapeId, ptr %5, i32 0, i32 0
  store i32 0, ptr %22, align 4, !tbaa !28
  %23 = getelementptr inbounds nuw %struct.b2ShapeId, ptr %5, i32 0, i32 1
  store i16 0, ptr %23, align 4, !tbaa !30
  %24 = getelementptr inbounds nuw %struct.b2ShapeId, ptr %5, i32 0, i32 2
  store i16 0, ptr %24, align 2, !tbaa !31
  store i32 1, ptr %11, align 4
  br label %69

25:                                               ; preds = %4
  call void @llvm.lifetime.start.p0(i64 8, ptr %12) #9
  %26 = load ptr, ptr %10, align 8, !tbaa !26
  %27 = load i64, ptr %6, align 4
  %28 = call ptr @b2GetBodyFullId(ptr noundef %26, i64 %27)
  store ptr %28, ptr %12, align 8, !tbaa !32
  call void @llvm.lifetime.start.p0(i64 16, ptr %13) #9
  %29 = load ptr, ptr %10, align 8, !tbaa !26
  %30 = load ptr, ptr %12, align 8, !tbaa !32
  %31 = call { <2 x float>, <2 x float> } @b2GetBodyTransformQuick(ptr noundef %29, ptr noundef %30)
  %32 = getelementptr inbounds nuw { <2 x float>, <2 x float> }, ptr %13, i32 0, i32 0
  %33 = extractvalue { <2 x float>, <2 x float> } %31, 0
  store <2 x float> %33, ptr %32, align 4
  %34 = getelementptr inbounds nuw { <2 x float>, <2 x float> }, ptr %13, i32 0, i32 1
  %35 = extractvalue { <2 x float>, <2 x float> } %31, 1
  store <2 x float> %35, ptr %34, align 4
  call void @llvm.lifetime.start.p0(i64 8, ptr %14) #9
  %36 = load ptr, ptr %10, align 8, !tbaa !26
  %37 = load ptr, ptr %12, align 8, !tbaa !32
  %38 = load ptr, ptr %7, align 8, !tbaa !19
  %39 = load ptr, ptr %8, align 8, !tbaa !12
  %40 = load i32, ptr %9, align 4, !tbaa !3
  %41 = getelementptr inbounds nuw { <2 x float>, <2 x float> }, ptr %13, i32 0, i32 0
  %42 = load <2 x float>, ptr %41, align 4
  %43 = getelementptr inbounds nuw { <2 x float>, <2 x float> }, ptr %13, i32 0, i32 1
  %44 = load <2 x float>, ptr %43, align 4
  %45 = call ptr @b2CreateShapeInternal(ptr noundef %36, ptr noundef %37, <2 x float> %42, <2 x float> %44, ptr noundef %38, ptr noundef %39, i32 noundef %40)
  store ptr %45, ptr %14, align 8, !tbaa !34
  %46 = load ptr, ptr %7, align 8, !tbaa !19
  %47 = getelementptr inbounds nuw %struct.b2ShapeDef, ptr %46, i32 0, i32 14
  %48 = load i8, ptr %47, align 1, !tbaa !35, !range !41, !noundef !42
  %49 = trunc i8 %48 to i1
  %50 = zext i1 %49 to i32
  %51 = icmp eq i32 %50, 1
  br i1 %51, label %52, label %55

52:                                               ; preds = %25
  %53 = load ptr, ptr %10, align 8, !tbaa !26
  %54 = load ptr, ptr %12, align 8, !tbaa !32
  call void @b2UpdateBodyMassData(ptr noundef %53, ptr noundef %54)
  br label %55

55:                                               ; preds = %52, %25
  %56 = load ptr, ptr %10, align 8, !tbaa !26
  call void @b2ValidateSolverSets(ptr noundef %56)
  %57 = getelementptr inbounds nuw %struct.b2ShapeId, ptr %5, i32 0, i32 0
  %58 = load ptr, ptr %14, align 8, !tbaa !34
  %59 = getelementptr inbounds nuw %struct.b2Shape, ptr %58, i32 0, i32 0
  %60 = load i32, ptr %59, align 8, !tbaa !43
  %61 = add nsw i32 %60, 1
  store i32 %61, ptr %57, align 4, !tbaa !28
  %62 = getelementptr inbounds nuw %struct.b2ShapeId, ptr %5, i32 0, i32 1
  %63 = getelementptr inbounds nuw %struct.b2BodyId, ptr %6, i32 0, i32 1
  %64 = load i16, ptr %63, align 4, !tbaa !23
  store i16 %64, ptr %62, align 4, !tbaa !30
  %65 = getelementptr inbounds nuw %struct.b2ShapeId, ptr %5, i32 0, i32 2
  %66 = load ptr, ptr %14, align 8, !tbaa !34
  %67 = getelementptr inbounds nuw %struct.b2Shape, ptr %66, i32 0, i32 20
  %68 = load i16, ptr %67, align 4, !tbaa !47
  store i16 %68, ptr %65, align 2, !tbaa !31
  store i32 1, ptr %11, align 4
  call void @llvm.lifetime.end.p0(i64 8, ptr %14) #9
  call void @llvm.lifetime.end.p0(i64 16, ptr %13) #9
  call void @llvm.lifetime.end.p0(i64 8, ptr %12) #9
  br label %69

69:                                               ; preds = %55, %21
  call void @llvm.lifetime.end.p0(i64 8, ptr %10) #9
  %70 = load i64, ptr %5, align 4
  ret i64 %70
}