; Function Attrs: nounwind uwtable
define internal fastcc i64 @b2CreateShape(i64 %0, ptr noundef readonly captures(none) %1, ptr noundef readonly captures(none) %2, i32 noundef range(i32 0, 4) %3) unnamed_addr #3 {
  %.sroa.2.0.extract.shift = lshr i64 %0, 32
  %5 = trunc nuw i64 %.sroa.2.0.extract.shift to i32
  %6 = and i32 %5, 65535
  %7 = tail call ptr @b2GetWorldLocked(i32 noundef %6) #10
  %8 = icmp eq ptr %7, null
  br i1 %8, label %30, label %9

9:                                                ; preds = %4
  %10 = tail call ptr @b2GetBodyFullId(ptr noundef nonnull %7, i64 %0) #10
  %11 = tail call { <2 x float>, <2 x float> } @b2GetBodyTransformQuick(ptr noundef nonnull %7, ptr noundef %10) #10
  %12 = extractvalue { <2 x float>, <2 x float> } %11, 0
  %13 = extractvalue { <2 x float>, <2 x float> } %11, 1
  %14 = tail call fastcc ptr @b2CreateShapeInternal(ptr noundef %7, ptr noundef %10, <2 x float> %12, <2 x float> %13, ptr noundef %1, ptr noundef %2, i32 noundef %3)
  %15 = getelementptr inbounds nuw i8, ptr %1, i64 65
  %16 = load i8, ptr %15, align 1, !tbaa !15, !range !21, !noundef !22
  %17 = trunc nuw i8 %16 to i1
  br i1 %17, label %18, label %19

18:                                               ; preds = %9
  tail call void @b2UpdateBodyMassData(ptr noundef nonnull %7, ptr noundef %10) #10
  br label %19

19:                                               ; preds = %18, %9
  tail call void @b2ValidateSolverSets(ptr noundef nonnull %7) #10
  %20 = load i32, ptr %14, align 8, !tbaa !23
  %21 = add nsw i32 %20, 1
  %22 = getelementptr inbounds nuw i8, ptr %14, i64 276
  %23 = load i16, ptr %22, align 4, !tbaa !28
  %24 = zext i16 %23 to i64
  %25 = shl nuw i64 %24, 48
  %26 = and i64 %0, 281470681743360
  %27 = or disjoint i64 %25, %26
  %28 = zext i32 %21 to i64
  %29 = or disjoint i64 %27, %28
  br label %30

30:                                               ; preds = %4, %19
  %.sroa.017.0.insert.insert = phi i64 [ %29, %19 ], [ 0, %4 ]
  ret i64 %.sroa.017.0.insert.insert
}